; Function Attrs: nounwind uwtable
define hidden i32 @Curl_http_write_resp_hd(ptr noundef %0, ptr noundef %1, i64 noundef %2, i1 noundef zeroext %3) #0 {
  %5 = alloca i64, align 8
  %6 = alloca i8, align 1
  call void @llvm.lifetime.start.p0(i64 8, ptr nonnull %5) #11
  call void @llvm.lifetime.start.p0(i64 1, ptr nonnull %6) #11
  store i8 0, ptr %6, align 1, !tbaa !98
  %7 = call fastcc i32 @http_rw_hd(ptr noundef %0, ptr noundef %1, i64 noundef %2, ptr noundef nonnull %6, i64 noundef 0, ptr noundef %5)
  %.not = icmp eq i32 %7, 0
  %brmerge.not = and i1 %3, %.not
  br i1 %brmerge.not, label %8, label %10

8:                                                ; preds = %4
  %9 = call i32 @Curl_client_write(ptr noundef %0, i32 noundef 129, ptr noundef nonnull %6, i64 noundef 0) #11
  br label %10

10:                                               ; preds = %4, %8
  %.0 = phi i32 [ %7, %4 ], [ %9, %8 ]
  call void @llvm.lifetime.end.p0(i64 1, ptr nonnull %6) #11
  call void @llvm.lifetime.end.p0(i64 8, ptr nonnull %5) #11
  ret i32 %.0
}